#include <math.h>
#include <stdio.h>
#include <stdlib.h>
#include <string.h>
#define LEN 100
#define ASCII 100
#define MAX_N 100
#define MAX_N 100
#define L 100
#define MAX 100
#define ASC 100
#define null 0
#define Len 100
#define M 100
#define SUM 100
#define NUMBER 100
#define SIZE 100
#define N 100
#define Max 100
#define X 100
#define Y 100
#define A 100
#define MAXN 100
#define MAXSIZE 100
//
//  main.c
//  Track 82,????????????
//
//  Created by Charles.thRay.Lee on 2/1/13.
//  Copyright (c) 2013 Peking University. All rights reserved.
/*
 ??
 ???????????????????????????????????????
 ????
 ?????????????????????
 00630018 zhouyan m 20 10.0 28#460
 
 ??????"end"??
 ????
 ??????????
 ?????????
 
 ?? ?? ?? ?? ?? ??
 
 ?????
 ????
00630018 zhouyan m 20 10 28#4600
0063001 zhouyn f 21 100 28#460000
0063008 zhoyan f 20 1000 28#460000
0063018 zhouan m 21 10000 28#4600000
00613018 zhuyan m 20 100 28#4600
00160018 zouyan f 21 100 28#4600
01030018 houyan m 20 10 28#4600
0630018 zuyan m 21 100 28#4600
10630018 zouan m 20 10 28#46000
00630018 zhouyan m 20 10 28#4600
0063001 zhouyn f 21 100 28#460000
0063008 zhoyan f 20 1000 28#460000
0063018 zhouan m 21 10000 28#4600000
00613018 zhuyan m 20 100 28#4600
00160018 zouyan f 21 100 28#4600
01030018 houyan m 20 10 28#4600
0630018 zuyan m 21 100 28#4600
10630018 zouan m 20 10 28#46000
end
 
 ????
 10630018 zouan m 20 10 28#46000
 
 0630018 zuyan m 21 100 28#4600
 
 01030018 houyan m 20 10 28#4600
 
 00160018 zouyan f 21 100 28#4600
 
 00613018 zhuyan m 20 100 28#4600
 
 0063018 zhouan m 21 10000 28#4600000
 
 0063008 zhoyan f 20 1000 28#460000
 
 0063001 zhouyn f 21 100 28#460000
 
 00630018 zhouyan m 20 10 28#4600
*/


struct Student
{
    char num[20];
    char name[20];
    char gender;
    int age;
    char score[10];
    char address[20];
    struct Student*next;
    struct Student*upper;
};

int n;
struct Student*creat(void)
{
    struct Student*head,*end;
    struct Student*p1,*p2;
    n=0;
    p1=p2=(struct Student*)malloc(LEN);
    scanf("%s %s %c %d %s %s",p1->num,p1->name,&p1->gender,&p1->age,p1->score,p1->address);
    head=NULL;
    
    while (p1->num[0]!='e') {
        n=n+1;
        if (n==1)
        {
            head=p1;
            p1->upper=NULL;
        }
        else
        {
            p2->next=p1;
            p1->upper=p2;
        }
        p2=p1;
        p1=(struct Student*)malloc(LEN);
        scanf("%s",p1->num);
        if (p1->num[0]=='e') {
            end=p2;
            break;
        }
        scanf("%s %c %d %s %s",p1->name,&p1->gender,&p1->age,p1->score,p1->address);
    }
    p2->next=NULL;
    return (end);
}

int main()
{
    struct Student *pt;
    pt=creat();
        do {
            printf("%s %s %c %d %s %s\n",pt->num,pt->name,pt->gender,pt->age,pt->score,pt->address);
            pt=pt->upper;
        } while (pt!=NULL);
    return 0;
}